target datalayout = "e-m:e-p270:32:32-p271:32:32-p272:64:64-i64:64-i128:128-f80:128-n8:16:32:64-S128"
target triple = "x86_64-unknown-linux-gnu"

%"class.datalog::mk_subsumption_checker" = type <{ %"class.datalog::rule_transformer::plugin", ptr, ptr, %class.ref_vector, %class.obj_hashtable, %class.obj_map, %class.obj_map.2, i8, i8, [6 x i8] }>
%"class.datalog::rule_transformer::plugin" = type { ptr, i32, i8, ptr }
%class.ref_vector = type { %class.ref_vector_core }
%class.ref_vector_core = type { %class.ref_manager_wrapper, %class.ptr_vector }
%class.ref_manager_wrapper = type { ptr }
%class.ptr_vector = type { %class.vector }
%class.vector = type { ptr }
%class.obj_hashtable = type { %class.core_hashtable.base, [4 x i8] }
%class.core_hashtable.base = type <{ ptr, i32, i32, i32 }>
%class.obj_map = type { %class.core_hashtable.0 }
%class.core_hashtable.0 = type <{ ptr, i32, i32, i32, [4 x i8] }>
%class.obj_map.2 = type { %class.core_hashtable.3 }
%class.core_hashtable.3 = type <{ ptr, i32, i32, i32, [4 x i8] }>
%"struct.obj_map<func_decl, datalog::rule *>::key_data" = type { ptr, ptr }

; Function Attrs: mustprogress uwtable
define linkonce_odr hidden void @_ZN19ref_manager_wrapperIN7datalog4ruleENS0_12rule_managerEE7inc_refEPS1_(ptr noundef nonnull align 8 dereferenceable(8) %this, ptr noundef %n) #4 comdat align 2 {
entry:
  %this.addr = alloca ptr, align 8
  %n.addr = alloca ptr, align 8
  store ptr %this, ptr %this.addr, align 8
  store ptr %n, ptr %n.addr, align 8
  %this1 = load ptr, ptr %this.addr, align 8
  %m_manager = getelementptr inbounds %class.ref_manager_wrapper, ptr %this1, i32 0, i32 0
  %0 = load ptr, ptr %m_manager, align 8
  %1 = load ptr, ptr %n.addr, align 8
  call void @_ZN7datalog12rule_manager7inc_refEPNS_4ruleE(ptr noundef nonnull align 8 dereferenceable(1368) %0, ptr noundef %1)
  ret void
}

; Function Attrs: mustprogress uwtable
define linkonce_odr hidden noundef nonnull align 8 dereferenceable(8) ptr @_ZN6vectorIPN7datalog4ruleELb0EjE9push_backERKS2_(ptr noundef nonnull align 8 dereferenceable(8) %this, ptr noundef nonnull align 8 dereferenceable(8) %elem) #4 comdat align 2 {
entry:
  %this.addr = alloca ptr, align 8
  %elem.addr = alloca ptr, align 8
  store ptr %this, ptr %this.addr, align 8
  store ptr %elem, ptr %elem.addr, align 8
  %this1 = load ptr, ptr %this.addr, align 8
  %m_data = getelementptr inbounds %class.vector, ptr %this1, i32 0, i32 0
  %0 = load ptr, ptr %m_data, align 8
  %cmp = icmp eq ptr %0, null
  br i1 %cmp, label %if.then, label %lor.lhs.false

lor.lhs.false:                                    ; preds = %entry
  %m_data2 = getelementptr inbounds %class.vector, ptr %this1, i32 0, i32 0
  %1 = load ptr, ptr %m_data2, align 8
  %arrayidx = getelementptr inbounds i32, ptr %1, i64 -1
  %2 = load i32, ptr %arrayidx, align 4
  %m_data3 = getelementptr inbounds %class.vector, ptr %this1, i32 0, i32 0
  %3 = load ptr, ptr %m_data3, align 8
  %arrayidx4 = getelementptr inbounds i32, ptr %3, i64 -2
  %4 = load i32, ptr %arrayidx4, align 4
  %cmp5 = icmp eq i32 %2, %4
  br i1 %cmp5, label %if.then, label %if.end

if.then:                                          ; preds = %lor.lhs.false, %entry
  call void @_ZN6vectorIPN7datalog4ruleELb0EjE13expand_vectorEv(ptr noundef nonnull align 8 dereferenceable(8) %this1)
  br label %if.end

if.end:                                           ; preds = %if.then, %lor.lhs.false
  %m_data6 = getelementptr inbounds %class.vector, ptr %this1, i32 0, i32 0
  %5 = load ptr, ptr %m_data6, align 8
  %m_data7 = getelementptr inbounds %class.vector, ptr %this1, i32 0, i32 0
  %6 = load ptr, ptr %m_data7, align 8
  %arrayidx8 = getelementptr inbounds i32, ptr %6, i64 -1
  %7 = load i32, ptr %arrayidx8, align 4
  %idx.ext = zext i32 %7 to i64
  %add.ptr = getelementptr inbounds ptr, ptr %5, i64 %idx.ext
  %8 = load ptr, ptr %elem.addr, align 8
  %9 = load ptr, ptr %8, align 8
  store ptr %9, ptr %add.ptr, align 8
  %m_data9 = getelementptr inbounds %class.vector, ptr %this1, i32 0, i32 0
  %10 = load ptr, ptr %m_data9, align 8
  %arrayidx10 = getelementptr inbounds i32, ptr %10, i64 -1
  %11 = load i32, ptr %arrayidx10, align 4
  %inc = add i32 %11, 1
  store i32 %inc, ptr %arrayidx10, align 4
  ret ptr %this1
}

; Function Attrs: mustprogress uwtable
define linkonce_odr hidden void @_ZN15ref_vector_coreIN7datalog4ruleE19ref_manager_wrapperIS1_NS0_12rule_managerEEE7inc_refEPS1_(ptr noundef nonnull align 8 dereferenceable(16) %this, ptr noundef %o) #4 comdat align 2 {
entry:
  %this.addr = alloca ptr, align 8
  %o.addr = alloca ptr, align 8
  store ptr %this, ptr %this.addr, align 8
  store ptr %o, ptr %o.addr, align 8
  %this1 = load ptr, ptr %this.addr, align 8
  %0 = load ptr, ptr %o.addr, align 8
  call void @_ZN19ref_manager_wrapperIN7datalog4ruleENS0_12rule_managerEE7inc_refEPS1_(ptr noundef nonnull align 8 dereferenceable(8) %this1, ptr noundef %0)
  ret void
}

; Function Attrs: mustprogress nounwind uwtable
define linkonce_odr hidden void @_ZN7obj_mapI9func_declPN7datalog4ruleEE8key_dataC2EPS0_RKS3_(ptr noundef nonnull align 8 dereferenceable(16) %this, ptr noundef %k, ptr noundef nonnull align 8 dereferenceable(8) %v) unnamed_addr #5 comdat align 2 {
entry:
  %this.addr = alloca ptr, align 8
  %k.addr = alloca ptr, align 8
  %v.addr = alloca ptr, align 8
  store ptr %this, ptr %this.addr, align 8
  store ptr %k, ptr %k.addr, align 8
  store ptr %v, ptr %v.addr, align 8
  %this1 = load ptr, ptr %this.addr, align 8
  %m_key = getelementptr inbounds %"struct.obj_map<func_decl, datalog::rule *>::key_data", ptr %this1, i32 0, i32 0
  %0 = load ptr, ptr %k.addr, align 8
  store ptr %0, ptr %m_key, align 8
  %m_value = getelementptr inbounds %"struct.obj_map<func_decl, datalog::rule *>::key_data", ptr %this1, i32 0, i32 1
  %1 = load ptr, ptr %v.addr, align 8
  %2 = load ptr, ptr %1, align 8
  store ptr %2, ptr %m_value, align 8
  ret void
}

; Function Attrs: mustprogress uwtable
define linkonce_odr hidden noundef nonnull align 8 dereferenceable(16) ptr @_ZN15ref_vector_coreIN7datalog4ruleE19ref_manager_wrapperIS1_NS0_12rule_managerEEE9push_backEPS1_(ptr noundef nonnull align 8 dereferenceable(16) %this, ptr noundef %n) #4 comdat align 2 {
entry:
  %this.addr = alloca ptr, align 8
  %n.addr = alloca ptr, align 8
  store ptr %this, ptr %this.addr, align 8
  store ptr %n, ptr %n.addr, align 8
  %this1 = load ptr, ptr %this.addr, align 8
  %0 = load ptr, ptr %n.addr, align 8
  call void @_ZN15ref_vector_coreIN7datalog4ruleE19ref_manager_wrapperIS1_NS0_12rule_managerEEE7inc_refEPS1_(ptr noundef nonnull align 8 dereferenceable(16) %this1, ptr noundef %0)
  %m_nodes = getelementptr inbounds %class.ref_vector_core, ptr %this1, i32 0, i32 1
  %call = call noundef nonnull align 8 dereferenceable(8) ptr @_ZN6vectorIPN7datalog4ruleELb0EjE9push_backERKS2_(ptr noundef nonnull align 8 dereferenceable(8) %m_nodes, ptr noundef nonnull align 8 dereferenceable(8) %n.addr)
  ret ptr %this1
}

; Function Attrs: mustprogress uwtable
define linkonce_odr hidden void @_ZN7obj_mapI9func_declPN7datalog4ruleEE6insertEPS0_RKS3_(ptr noundef nonnull align 8 dereferenceable(24) %this, ptr noundef %k, ptr noundef nonnull align 8 dereferenceable(8) %v) #4 comdat align 2 {
entry:
  %this.addr = alloca ptr, align 8
  %k.addr = alloca ptr, align 8
  %v.addr = alloca ptr, align 8
  %ref.tmp = alloca %"struct.obj_map<func_decl, datalog::rule *>::key_data", align 8
  store ptr %this, ptr %this.addr, align 8
  store ptr %k, ptr %k.addr, align 8
  store ptr %v, ptr %v.addr, align 8
  %this1 = load ptr, ptr %this.addr, align 8
  %m_table = getelementptr inbounds %class.obj_map, ptr %this1, i32 0, i32 0
  %0 = load ptr, ptr %k.addr, align 8
  %1 = load ptr, ptr %v.addr, align 8
  call void @_ZN7obj_mapI9func_declPN7datalog4ruleEE8key_dataC2EPS0_RKS3_(ptr noundef nonnull align 8 dereferenceable(16) %ref.tmp, ptr noundef %0, ptr noundef nonnull align 8 dereferenceable(8) %1)
  call void @_ZN14core_hashtableIN7obj_mapI9func_declPN7datalog4ruleEE13obj_map_entryE8obj_hashINS5_8key_dataEE10default_eqIS8_EE6insertEOS8_(ptr noundef nonnull align 8 dereferenceable(20) %m_table, ptr noundef nonnull align 8 dereferenceable(16) %ref.tmp)
  ret void
}

; Function Attrs: mustprogress uwtable
define linkonce_odr hidden void @_ZN14core_hashtableI14obj_hash_entryI9func_declE12obj_ptr_hashIS1_E6ptr_eqIS1_EE6insertERKPS1_(ptr noundef nonnull align 8 dereferenceable(20) %this, ptr noundef nonnull align 8 dereferenceable(8) %e) #4 comdat align 2 {
entry:
  %this.addr = alloca ptr, align 8
  %e.addr = alloca ptr, align 8
  %tmp = alloca ptr, align 8
  store ptr %this, ptr %this.addr, align 8
  store ptr %e, ptr %e.addr, align 8
  %this1 = load ptr, ptr %this.addr, align 8
  %0 = load ptr, ptr %e.addr, align 8
  %1 = load ptr, ptr %0, align 8
  store ptr %1, ptr %tmp, align 8
  call void @_ZN14core_hashtableI14obj_hash_entryI9func_declE12obj_ptr_hashIS1_E6ptr_eqIS1_EE6insertEOPS1_(ptr noundef nonnull align 8 dereferenceable(20) %this1, ptr noundef nonnull align 8 dereferenceable(8) %tmp)
  ret void
}

; Function Attrs: mustprogress uwtable
define hidden void @_ZN7datalog22mk_subsumption_checker28on_discovered_total_relationEP9func_declPNS_4ruleE(ptr noundef nonnull align 8 dereferenceable(130) %this, ptr noundef %pred, ptr noundef %r) #4 align 2 {
entry:
  %this.addr = alloca ptr, align 8
  %pred.addr = alloca ptr, align 8
  %r.addr = alloca ptr, align 8
  store ptr %this, ptr %this.addr, align 8
  store ptr %pred, ptr %pred.addr, align 8
  store ptr %r, ptr %r.addr, align 8
  %this1 = load ptr, ptr %this.addr, align 8
  %m_total_relations = getelementptr inbounds %"class.datalog::mk_subsumption_checker", ptr %this1, i32 0, i32 4
  call void @_ZN14core_hashtableI14obj_hash_entryI9func_declE12obj_ptr_hashIS1_E6ptr_eqIS1_EE6insertERKPS1_(ptr noundef nonnull align 8 dereferenceable(20) %m_total_relations, ptr noundef nonnull align 8 dereferenceable(8) %pred.addr)
  %m_total_relation_defining_rules = getelementptr inbounds %"class.datalog::mk_subsumption_checker", ptr %this1, i32 0, i32 5
  %0 = load ptr, ptr %pred.addr, align 8
  call void @_ZN7obj_mapI9func_declPN7datalog4ruleEE6insertEPS0_RKS3_(ptr noundef nonnull align 8 dereferenceable(24) %m_total_relation_defining_rules, ptr noundef %0, ptr noundef nonnull align 8 dereferenceable(8) %r.addr)
  %m_have_new_total_rule = getelementptr inbounds %"class.datalog::mk_subsumption_checker", ptr %this1, i32 0, i32 7
  store i8 1, ptr %m_have_new_total_rule, align 8
  %1 = load ptr, ptr %r.addr, align 8
  %tobool = icmp ne ptr %1, null
  br i1 %tobool, label %if.then, label %if.end

if.then:                                          ; preds = %entry
  %m_ref_holder = getelementptr inbounds %"class.datalog::mk_subsumption_checker", ptr %this1, i32 0, i32 3
  %2 = load ptr, ptr %r.addr, align 8
  %call = call noundef nonnull align 8 dereferenceable(16) ptr @_ZN15ref_vector_coreIN7datalog4ruleE19ref_manager_wrapperIS1_NS0_12rule_managerEEE9push_backEPS1_(ptr noundef nonnull align 8 dereferenceable(16) %m_ref_holder, ptr noundef %2)
  br label %if.end

if.end:                                           ; preds = %if.then, %entry
  ret void
}