; Function Attrs: mustprogress uwtable
define hidden void @_ZN7datalog22mk_subsumption_checker28on_discovered_total_relationEP9func_declPNS_4ruleE(ptr noundef nonnull align 8 dereferenceable(130) %this, ptr noundef %pred, ptr noundef %r) local_unnamed_addr #3 align 2 {
entry:
  %ref.tmp.i = alloca %"struct.obj_map<func_decl, datalog::rule *>::key_data", align 8
  %tmp.i = alloca ptr, align 8
  %m_total_relations = getelementptr inbounds i8, ptr %this, i64 56
  call void @llvm.lifetime.start.p0(i64 8, ptr nonnull %tmp.i)
  store ptr %pred, ptr %tmp.i, align 8
  call void @_ZN14core_hashtableI14obj_hash_entryI9func_declE12obj_ptr_hashIS1_E6ptr_eqIS1_EE6insertEOPS1_(ptr noundef nonnull align 8 dereferenceable(20) %m_total_relations, ptr noundef nonnull align 8 dereferenceable(8) %tmp.i)
  call void @llvm.lifetime.end.p0(i64 8, ptr nonnull %tmp.i)
  %m_total_relation_defining_rules = getelementptr inbounds i8, ptr %this, i64 80
  call void @llvm.lifetime.start.p0(i64 16, ptr nonnull %ref.tmp.i)
  store ptr %pred, ptr %ref.tmp.i, align 8
  %m_value.i.i = getelementptr inbounds i8, ptr %ref.tmp.i, i64 8
  store ptr %r, ptr %m_value.i.i, align 8
  call void @_ZN14core_hashtableIN7obj_mapI9func_declPN7datalog4ruleEE13obj_map_entryE8obj_hashINS5_8key_dataEE10default_eqIS8_EE6insertEOS8_(ptr noundef nonnull align 8 dereferenceable(20) %m_total_relation_defining_rules, ptr noundef nonnull align 8 dereferenceable(16) %ref.tmp.i)
  call void @llvm.lifetime.end.p0(i64 16, ptr nonnull %ref.tmp.i)
  %m_have_new_total_rule = getelementptr inbounds i8, ptr %this, i64 128
  store i8 1, ptr %m_have_new_total_rule, align 8
  %tobool.not = icmp eq ptr %r, null
  br i1 %tobool.not, label %if.end, label %if.then

if.then:                                          ; preds = %entry
  %m_ref_holder = getelementptr inbounds i8, ptr %this, i64 40
  %0 = load ptr, ptr %m_ref_holder, align 8
  call void @_ZN7datalog12rule_manager7inc_refEPNS_4ruleE(ptr noundef nonnull align 8 dereferenceable(1368) %0, ptr noundef nonnull %r)
  %m_nodes.i = getelementptr inbounds i8, ptr %this, i64 48
  %1 = load ptr, ptr %m_nodes.i, align 8
  %cmp.i.i = icmp eq ptr %1, null
  br i1 %cmp.i.i, label %if.then.i.i, label %lor.lhs.false.i.i

lor.lhs.false.i.i:                                ; preds = %if.then
  %arrayidx.i.i = getelementptr inbounds i8, ptr %1, i64 -4
  %2 = load i32, ptr %arrayidx.i.i, align 4
  %arrayidx4.i.i = getelementptr inbounds i8, ptr %1, i64 -8
  %3 = load i32, ptr %arrayidx4.i.i, align 4
  %cmp5.i.i = icmp eq i32 %2, %3
  br i1 %cmp5.i.i, label %if.then.i.i, label %_ZN15ref_vector_coreIN7datalog4ruleE19ref_manager_wrapperIS1_NS0_12rule_managerEEE9push_backEPS1_.exit

if.then.i.i:                                      ; preds = %lor.lhs.false.i.i, %if.then
  call void @_ZN6vectorIPN7datalog4ruleELb0EjE13expand_vectorEv(ptr noundef nonnull align 8 dereferenceable(8) %m_nodes.i)
  %.pre.i.i = load ptr, ptr %m_nodes.i, align 8
  %arrayidx8.phi.trans.insert.i.i = getelementptr inbounds i8, ptr %.pre.i.i, i64 -4
  %.pre1.i.i = load i32, ptr %arrayidx8.phi.trans.insert.i.i, align 4
  br label %_ZN15ref_vector_coreIN7datalog4ruleE19ref_manager_wrapperIS1_NS0_12rule_managerEEE9push_backEPS1_.exit

_ZN15ref_vector_coreIN7datalog4ruleE19ref_manager_wrapperIS1_NS0_12rule_managerEEE9push_backEPS1_.exit: ; preds = %lor.lhs.false.i.i, %if.then.i.i
  %4 = phi i32 [ %.pre1.i.i, %if.then.i.i ], [ %2, %lor.lhs.false.i.i ]
  %5 = phi ptr [ %.pre.i.i, %if.then.i.i ], [ %1, %lor.lhs.false.i.i ]
  %idx.ext.i.i = zext i32 %4 to i64
  %add.ptr.i.i = getelementptr inbounds ptr, ptr %5, i64 %idx.ext.i.i
  store ptr %r, ptr %add.ptr.i.i, align 8
  %6 = load ptr, ptr %m_nodes.i, align 8
  %arrayidx10.i.i = getelementptr inbounds i8, ptr %6, i64 -4
  %7 = load i32, ptr %arrayidx10.i.i, align 4
  %inc.i.i = add i32 %7, 1
  store i32 %inc.i.i, ptr %arrayidx10.i.i, align 4
  br label %if.end

if.end:                                           ; preds = %_ZN15ref_vector_coreIN7datalog4ruleE19ref_manager_wrapperIS1_NS0_12rule_managerEEE9push_backEPS1_.exit, %entry
  ret void
}